target datalayout = "e-m:e-p270:32:32-p271:32:32-p272:64:64-i64:64-i128:128-f80:128-n8:16:32:64-S128"
target triple = "x86_64-unknown-linux-gnu"

%"class.google::protobuf::io::GzipInputStream" = type { %"class.google::protobuf::io::ZeroCopyInputStream", i32, ptr, %struct.z_stream_s, i32, ptr, ptr, i64, i64 }
%"class.google::protobuf::io::ZeroCopyInputStream" = type { ptr }
%struct.z_stream_s = type { ptr, i32, i64, ptr, i32, i64, ptr, ptr, ptr, ptr, ptr, i32, i64, i64 }

@.str.3 = private unnamed_addr constant [7 x i8] c"1.2.11\00", align 1

; Function Attrs: mustprogress uwtable
define internal noundef i32 @_ZN6google8protobuf2ioL20internalInflateInit2EP10z_stream_sNS1_15GzipInputStream6FormatE(ptr noundef %zcontext, i32 noundef %format) #4 {
entry:
  %zcontext.addr = alloca ptr, align 8
  %format.addr = alloca i32, align 4
  %windowBitsFormat = alloca i32, align 4
  store ptr %zcontext, ptr %zcontext.addr, align 8
  store i32 %format, ptr %format.addr, align 4
  store i32 0, ptr %windowBitsFormat, align 4
  %0 = load i32, ptr %format.addr, align 4
  switch i32 %0, label %sw.epilog [
    i32 1, label %sw.bb
    i32 0, label %sw.bb1
    i32 2, label %sw.bb2
  ]

sw.bb:                                            ; preds = %entry
  store i32 16, ptr %windowBitsFormat, align 4
  br label %sw.epilog

sw.bb1:                                           ; preds = %entry
  store i32 32, ptr %windowBitsFormat, align 4
  br label %sw.epilog

sw.bb2:                                           ; preds = %entry
  store i32 0, ptr %windowBitsFormat, align 4
  br label %sw.epilog

sw.epilog:                                        ; preds = %sw.bb2, %sw.bb1, %sw.bb, %entry
  %1 = load ptr, ptr %zcontext.addr, align 8
  %2 = load i32, ptr %windowBitsFormat, align 4
  %or = or i32 15, %2
  %call = call i32 @inflateInit2_(ptr noundef %1, i32 noundef %or, ptr noundef @.str.3, i32 noundef 112)
  ret i32 %call
}

; Function Attrs: mustprogress nounwind uwtable
define void @_ZN6google8protobuf2io15GzipInputStream12DoNextOutputEPPKvPi(ptr noundef nonnull align 8 dereferenceable(176) %this, ptr noundef %data, ptr noundef %size) #5 align 2 {
entry:
  %this.addr = alloca ptr, align 8
  %data.addr = alloca ptr, align 8
  %size.addr = alloca ptr, align 8
  store ptr %this, ptr %this.addr, align 8
  store ptr %data, ptr %data.addr, align 8
  store ptr %size, ptr %size.addr, align 8
  %this1 = load ptr, ptr %this.addr, align 8
  %output_position_ = getelementptr inbounds %"class.google::protobuf::io::GzipInputStream", ptr %this1, i32 0, i32 6
  %0 = load ptr, ptr %output_position_, align 8
  %1 = load ptr, ptr %data.addr, align 8
  store ptr %0, ptr %1, align 8
  %zcontext_ = getelementptr inbounds %"class.google::protobuf::io::GzipInputStream", ptr %this1, i32 0, i32 3
  %next_out = getelementptr inbounds %struct.z_stream_s, ptr %zcontext_, i32 0, i32 3
  %2 = load ptr, ptr %next_out, align 8
  %3 = ptrtoint ptr %2 to i64
  %output_position_2 = getelementptr inbounds %"class.google::protobuf::io::GzipInputStream", ptr %this1, i32 0, i32 6
  %4 = load ptr, ptr %output_position_2, align 8
  %5 = ptrtoint ptr %4 to i64
  %sub = sub i64 %3, %5
  %conv = trunc i64 %sub to i32
  %6 = load ptr, ptr %size.addr, align 8
  store i32 %conv, ptr %6, align 4
  %zcontext_3 = getelementptr inbounds %"class.google::protobuf::io::GzipInputStream", ptr %this1, i32 0, i32 3
  %next_out4 = getelementptr inbounds %struct.z_stream_s, ptr %zcontext_3, i32 0, i32 3
  %7 = load ptr, ptr %next_out4, align 8
  %output_position_5 = getelementptr inbounds %"class.google::protobuf::io::GzipInputStream", ptr %this1, i32 0, i32 6
  store ptr %7, ptr %output_position_5, align 8
  ret void
}

; Function Attrs: mustprogress uwtable
define noundef zeroext i1 @_ZN6google8protobuf2io15GzipInputStream4NextEPPKvPi(ptr noundef nonnull align 8 dereferenceable(176) %this, ptr noundef %data, ptr noundef %size) unnamed_addr #4 align 2 {
entry:
  %retval = alloca i1, align 1
  %this.addr = alloca ptr, align 8
  %data.addr = alloca ptr, align 8
  %size.addr = alloca ptr, align 8
  %ok = alloca i8, align 1
  store ptr %this, ptr %this.addr, align 8
  store ptr %data, ptr %data.addr, align 8
  store ptr %size, ptr %size.addr, align 8
  %this1 = load ptr, ptr %this.addr, align 8
  %zerror_ = getelementptr inbounds %"class.google::protobuf::io::GzipInputStream", ptr %this1, i32 0, i32 4
  %0 = load i32, ptr %zerror_, align 8
  %cmp = icmp eq i32 %0, 0
  br i1 %cmp, label %lor.end, label %lor.lhs.false

lor.lhs.false:                                    ; preds = %entry
  %zerror_2 = getelementptr inbounds %"class.google::protobuf::io::GzipInputStream", ptr %this1, i32 0, i32 4
  %1 = load i32, ptr %zerror_2, align 8
  %cmp3 = icmp eq i32 %1, 1
  br i1 %cmp3, label %lor.end, label %lor.rhs

lor.rhs:                                          ; preds = %lor.lhs.false
  %zerror_4 = getelementptr inbounds %"class.google::protobuf::io::GzipInputStream", ptr %this1, i32 0, i32 4
  %2 = load i32, ptr %zerror_4, align 8
  %cmp5 = icmp eq i32 %2, -5
  br label %lor.end

lor.end:                                          ; preds = %lor.rhs, %lor.lhs.false, %entry
  %3 = phi i1 [ true, %lor.lhs.false ], [ true, %entry ], [ %cmp5, %lor.rhs ]
  %frombool = zext i1 %3 to i8
  store i8 %frombool, ptr %ok, align 1
  %4 = load i8, ptr %ok, align 1
  %tobool = trunc i8 %4 to i1
  br i1 %tobool, label %lor.lhs.false6, label %if.then

lor.lhs.false6:                                   ; preds = %lor.end
  %zcontext_ = getelementptr inbounds %"class.google::protobuf::io::GzipInputStream", ptr %this1, i32 0, i32 3
  %next_out = getelementptr inbounds %struct.z_stream_s, ptr %zcontext_, i32 0, i32 3
  %5 = load ptr, ptr %next_out, align 8
  %cmp7 = icmp eq ptr %5, null
  br i1 %cmp7, label %if.then, label %if.end

if.then:                                          ; preds = %lor.lhs.false6, %lor.end
  store i1 false, ptr %retval, align 1
  br label %return

if.end:                                           ; preds = %lor.lhs.false6
  %zcontext_8 = getelementptr inbounds %"class.google::protobuf::io::GzipInputStream", ptr %this1, i32 0, i32 3
  %next_out9 = getelementptr inbounds %struct.z_stream_s, ptr %zcontext_8, i32 0, i32 3
  %6 = load ptr, ptr %next_out9, align 8
  %output_position_ = getelementptr inbounds %"class.google::protobuf::io::GzipInputStream", ptr %this1, i32 0, i32 6
  %7 = load ptr, ptr %output_position_, align 8
  %cmp10 = icmp ne ptr %6, %7
  br i1 %cmp10, label %if.then11, label %if.end12

if.then11:                                        ; preds = %if.end
  %8 = load ptr, ptr %data.addr, align 8
  %9 = load ptr, ptr %size.addr, align 8
  call void @_ZN6google8protobuf2io15GzipInputStream12DoNextOutputEPPKvPi(ptr noundef nonnull align 8 dereferenceable(176) %this1, ptr noundef %8, ptr noundef %9)
  store i1 true, ptr %retval, align 1
  br label %return

if.end12:                                         ; preds = %if.end
  %zerror_13 = getelementptr inbounds %"class.google::protobuf::io::GzipInputStream", ptr %this1, i32 0, i32 4
  %10 = load i32, ptr %zerror_13, align 8
  %cmp14 = icmp eq i32 %10, 1
  br i1 %cmp14, label %if.then15, label %if.end35

if.then15:                                        ; preds = %if.end12
  %zcontext_16 = getelementptr inbounds %"class.google::protobuf::io::GzipInputStream", ptr %this1, i32 0, i32 3
  %next_out17 = getelementptr inbounds %struct.z_stream_s, ptr %zcontext_16, i32 0, i32 3
  %11 = load ptr, ptr %next_out17, align 8
  %cmp18 = icmp ne ptr %11, null
  br i1 %cmp18, label %if.then19, label %if.else

if.then19:                                        ; preds = %if.then15
  %zcontext_20 = getelementptr inbounds %"class.google::protobuf::io::GzipInputStream", ptr %this1, i32 0, i32 3
  %call = call i32 @inflateEnd(ptr noundef %zcontext_20)
  %zerror_21 = getelementptr inbounds %"class.google::protobuf::io::GzipInputStream", ptr %this1, i32 0, i32 4
  store i32 %call, ptr %zerror_21, align 8
  %zcontext_22 = getelementptr inbounds %"class.google::protobuf::io::GzipInputStream", ptr %this1, i32 0, i32 3
  %total_out = getelementptr inbounds %struct.z_stream_s, ptr %zcontext_22, i32 0, i32 5
  %12 = load i64, ptr %total_out, align 8
  %byte_count_ = getelementptr inbounds %"class.google::protobuf::io::GzipInputStream", ptr %this1, i32 0, i32 8
  %13 = load i64, ptr %byte_count_, align 8
  %add = add i64 %13, %12
  store i64 %add, ptr %byte_count_, align 8
  %zerror_23 = getelementptr inbounds %"class.google::protobuf::io::GzipInputStream", ptr %this1, i32 0, i32 4
  %14 = load i32, ptr %zerror_23, align 8
  %cmp24 = icmp ne i32 %14, 0
  br i1 %cmp24, label %if.then25, label %if.end26

if.then25:                                        ; preds = %if.then19
  store i1 false, ptr %retval, align 1
  br label %return

if.end26:                                         ; preds = %if.then19
  %zcontext_27 = getelementptr inbounds %"class.google::protobuf::io::GzipInputStream", ptr %this1, i32 0, i32 3
  %format_ = getelementptr inbounds %"class.google::protobuf::io::GzipInputStream", ptr %this1, i32 0, i32 1
  %15 = load i32, ptr %format_, align 8
  %call28 = call noundef i32 @_ZN6google8protobuf2ioL20internalInflateInit2EP10z_stream_sNS1_15GzipInputStream6FormatE(ptr noundef %zcontext_27, i32 noundef %15)
  %zerror_29 = getelementptr inbounds %"class.google::protobuf::io::GzipInputStream", ptr %this1, i32 0, i32 4
  store i32 %call28, ptr %zerror_29, align 8
  %zerror_30 = getelementptr inbounds %"class.google::protobuf::io::GzipInputStream", ptr %this1, i32 0, i32 4
  %16 = load i32, ptr %zerror_30, align 8
  %cmp31 = icmp ne i32 %16, 0
  br i1 %cmp31, label %if.then32, label %if.end33

if.then32:                                        ; preds = %if.end26
  store i1 false, ptr %retval, align 1
  br label %return

if.end33:                                         ; preds = %if.end26
  br label %if.end34

if.else:                                          ; preds = %if.then15
  %17 = load ptr, ptr %data.addr, align 8
  store ptr null, ptr %17, align 8
  %18 = load ptr, ptr %size.addr, align 8
  store i32 0, ptr %18, align 4
  store i1 false, ptr %retval, align 1
  br label %return

if.end34:                                         ; preds = %if.end33
  br label %if.end35

if.end35:                                         ; preds = %if.end34, %if.end12
  %call36 = call noundef i32 @_ZN6google8protobuf2io15GzipInputStream7InflateEi(ptr noundef nonnull align 8 dereferenceable(176) %this1, i32 noundef 0)
  %zerror_37 = getelementptr inbounds %"class.google::protobuf::io::GzipInputStream", ptr %this1, i32 0, i32 4
  store i32 %call36, ptr %zerror_37, align 8
  %zerror_38 = getelementptr inbounds %"class.google::protobuf::io::GzipInputStream", ptr %this1, i32 0, i32 4
  %19 = load i32, ptr %zerror_38, align 8
  %cmp39 = icmp eq i32 %19, 1
  br i1 %cmp39, label %land.lhs.true, label %if.end44

land.lhs.true:                                    ; preds = %if.end35
  %zcontext_40 = getelementptr inbounds %"class.google::protobuf::io::GzipInputStream", ptr %this1, i32 0, i32 3
  %next_out41 = getelementptr inbounds %struct.z_stream_s, ptr %zcontext_40, i32 0, i32 3
  %20 = load ptr, ptr %next_out41, align 8
  %cmp42 = icmp eq ptr %20, null
  br i1 %cmp42, label %if.then43, label %if.end44

if.then43:                                        ; preds = %land.lhs.true
  store i1 false, ptr %retval, align 1
  br label %return

if.end44:                                         ; preds = %land.lhs.true, %if.end35
  %zerror_45 = getelementptr inbounds %"class.google::protobuf::io::GzipInputStream", ptr %this1, i32 0, i32 4
  %21 = load i32, ptr %zerror_45, align 8
  %cmp46 = icmp eq i32 %21, 0
  br i1 %cmp46, label %lor.end53, label %lor.lhs.false47

lor.lhs.false47:                                  ; preds = %if.end44
  %zerror_48 = getelementptr inbounds %"class.google::protobuf::io::GzipInputStream", ptr %this1, i32 0, i32 4
  %22 = load i32, ptr %zerror_48, align 8
  %cmp49 = icmp eq i32 %22, 1
  br i1 %cmp49, label %lor.end53, label %lor.rhs50

lor.rhs50:                                        ; preds = %lor.lhs.false47
  %zerror_51 = getelementptr inbounds %"class.google::protobuf::io::GzipInputStream", ptr %this1, i32 0, i32 4
  %23 = load i32, ptr %zerror_51, align 8
  %cmp52 = icmp eq i32 %23, -5
  br label %lor.end53

lor.end53:                                        ; preds = %lor.rhs50, %lor.lhs.false47, %if.end44
  %24 = phi i1 [ true, %lor.lhs.false47 ], [ true, %if.end44 ], [ %cmp52, %lor.rhs50 ]
  %frombool54 = zext i1 %24 to i8
  store i8 %frombool54, ptr %ok, align 1
  %25 = load i8, ptr %ok, align 1
  %tobool55 = trunc i8 %25 to i1
  br i1 %tobool55, label %if.end57, label %if.then56

if.then56:                                        ; preds = %lor.end53
  store i1 false, ptr %retval, align 1
  br label %return

if.end57:                                         ; preds = %lor.end53
  %26 = load ptr, ptr %data.addr, align 8
  %27 = load ptr, ptr %size.addr, align 8
  call void @_ZN6google8protobuf2io15GzipInputStream12DoNextOutputEPPKvPi(ptr noundef nonnull align 8 dereferenceable(176) %this1, ptr noundef %26, ptr noundef %27)
  store i1 true, ptr %retval, align 1
  br label %return

return:                                           ; preds = %if.end57, %if.then56, %if.then43, %if.else, %if.then32, %if.then25, %if.then11, %if.then
  %28 = load i1, ptr %retval, align 1
  ret i1 %28
}