; Function Attrs: mustprogress uwtable
define noundef zeroext i1 @_ZN6google8protobuf2io15GzipInputStream4NextEPPKvPi(ptr noundef nonnull align 8 dereferenceable(176) %this, ptr nocapture noundef writeonly %data, ptr nocapture noundef writeonly %size) unnamed_addr #3 align 2 {
entry:
  %zerror_ = getelementptr inbounds i8, ptr %this, i64 136
  %0 = load i32, ptr %zerror_, align 8
  switch i32 %0, label %return [
    i32 0, label %lor.lhs.false6.critedge
    i32 1, label %lor.lhs.false6.critedge
    i32 -5, label %lor.lhs.false6.critedge
  ]

lor.lhs.false6.critedge:                          ; preds = %entry, %entry, %entry
  %zcontext_ = getelementptr inbounds i8, ptr %this, i64 24
  %next_out = getelementptr inbounds i8, ptr %this, i64 48
  %1 = load ptr, ptr %next_out, align 8
  %cmp7 = icmp eq ptr %1, null
  br i1 %cmp7, label %return, label %if.end

if.end:                                           ; preds = %lor.lhs.false6.critedge
  %output_position_ = getelementptr inbounds i8, ptr %this, i64 152
  %2 = load ptr, ptr %output_position_, align 8
  %cmp10.not = icmp eq ptr %1, %2
  br i1 %cmp10.not, label %if.end12, label %return.sink.split

if.end12:                                         ; preds = %if.end
  %cmp14 = icmp eq i32 %0, 1
  br i1 %cmp14, label %if.then19, label %if.end35

if.then19:                                        ; preds = %if.end12
  %call = tail call i32 @inflateEnd(ptr noundef nonnull %zcontext_)
  store i32 %call, ptr %zerror_, align 8
  %total_out = getelementptr inbounds i8, ptr %this, i64 64
  %3 = load i64, ptr %total_out, align 8
  %byte_count_ = getelementptr inbounds i8, ptr %this, i64 168
  %4 = load i64, ptr %byte_count_, align 8
  %add = add i64 %4, %3
  store i64 %add, ptr %byte_count_, align 8
  %cmp24.not = icmp eq i32 %call, 0
  br i1 %cmp24.not, label %if.end26, label %return

if.end26:                                         ; preds = %if.then19
  %format_ = getelementptr inbounds i8, ptr %this, i64 8
  %5 = load i32, ptr %format_, align 8
  %switch.selectcmp.i = icmp eq i32 %5, 0
  %switch.select.i = select i1 %switch.selectcmp.i, i32 47, i32 15
  %switch.selectcmp1.i = icmp eq i32 %5, 1
  %switch.select2.i = select i1 %switch.selectcmp1.i, i32 31, i32 %switch.select.i
  %call.i = tail call noundef i32 @inflateInit2_(ptr noundef nonnull %zcontext_, i32 noundef %switch.select2.i, ptr noundef nonnull @.str.3, i32 noundef 112)
  store i32 %call.i, ptr %zerror_, align 8
  %cmp31.not = icmp eq i32 %call.i, 0
  br i1 %cmp31.not, label %if.end35, label %return

if.end35:                                         ; preds = %if.end26, %if.end12
  %call36 = tail call noundef i32 @_ZN6google8protobuf2io15GzipInputStream7InflateEi(ptr noundef nonnull align 8 dereferenceable(176) %this, i32 noundef 0)
  store i32 %call36, ptr %zerror_, align 8
  %cmp39 = icmp eq i32 %call36, 1
  %6 = load ptr, ptr %next_out, align 8
  %cmp42 = icmp eq ptr %6, null
  %or.cond = select i1 %cmp39, i1 %cmp42, i1 false
  br i1 %or.cond, label %return, label %if.end44

if.end44:                                         ; preds = %if.end35
  switch i32 %call36, label %return [
    i32 0, label %if.end57
    i32 1, label %if.end57
    i32 -5, label %if.end57
  ]

if.end57:                                         ; preds = %if.end44, %if.end44, %if.end44
  %7 = load ptr, ptr %output_position_, align 8
  br label %return.sink.split

return.sink.split:                                ; preds = %if.end, %if.end57
  %.sink = phi ptr [ %7, %if.end57 ], [ %2, %if.end ]
  store ptr %.sink, ptr %data, align 8
  %8 = load ptr, ptr %next_out, align 8
  %9 = ptrtoint ptr %8 to i64
  %10 = ptrtoint ptr %.sink to i64
  %sub.i11 = sub i64 %9, %10
  %conv.i12 = trunc i64 %sub.i11 to i32
  store i32 %conv.i12, ptr %size, align 4
  %11 = load ptr, ptr %next_out, align 8
  store ptr %11, ptr %output_position_, align 8
  br label %return

return:                                           ; preds = %return.sink.split, %if.end44, %entry, %if.end35, %if.end26, %if.then19, %lor.lhs.false6.critedge
  %retval.0 = phi i1 [ false, %lor.lhs.false6.critedge ], [ false, %if.then19 ], [ false, %if.end26 ], [ false, %if.end35 ], [ false, %entry ], [ false, %if.end44 ], [ true, %return.sink.split ]
  ret i1 %retval.0
}